target datalayout = "e-m:e-p270:32:32-p271:32:32-p272:64:64-i64:64-i128:128-f80:128-n8:16:32:64-S128"
target triple = "x86_64-pc-linux-gnu"

%struct.GCtrace = type { %struct.GCRef, i8, i8, i16, i32, i32, %struct.GCRef, ptr, i32, i32, ptr, ptr, %struct.GCRef, %struct.MRef, i32, i32, ptr, i32, i16, i16, i16, i16, i16, i16, i16, i8, i8, i8, i8 }
%struct.GCRef = type { i64 }
%struct.MRef = type { i64 }
%struct.jit_State = type { %struct.GCtrace, ptr, ptr, ptr, ptr, ptr, ptr, i32, i32, i32, i8, i8, %struct.IRType1, i8, %struct.FoldState, ptr, i32, i32, i32, i32, i32, i32, i32, [1 x i32], [5 x %union.TValue], [3 x %union.TValue], ptr, i32, i32, i32, i32, ptr, ptr, i32, i32, i8, ptr, i32, i32, i16, [101 x i16], [258 x i32], [15 x i32], [16 x ptr], [64 x %struct.HotPenalty], i32, [16 x %struct.BPropEntry], i32, %struct.ScEvEntry, ptr, i32, i32, i32, ptr, i32, i32, ptr, ptr, ptr, i64, i64, %union.TValue, ptr, i32, i32 }
%struct.IRType1 = type { i8 }
%struct.FoldState = type { %union.IRIns, [2 x %union.IRIns], [2 x %union.IRIns] }
%union.IRIns = type { %struct.GCRef }
%struct.HotPenalty = type { %struct.MRef, i16, i16 }
%struct.BPropEntry = type { i16, i16, i32 }
%struct.ScEvEntry = type { %struct.MRef, i16, i16, i16, i16, %struct.IRType1, i8 }
%union.TValue = type { i64 }
%struct.ASMState = type { [32 x i32], ptr, ptr, ptr, ptr, %struct.x86ModRM, i32, i32, i32, i32, i32, i32, i32, i32, i32, i32, i32, i32, i32, i32, i32, i32, i64, i64, i32, i32, i32, i32, i32, ptr, ptr, ptr, ptr, ptr, ptr, ptr, ptr, ptr, [32 x i16], [250 x i16] }
%struct.x86ModRM = type { i32, i8, i8, i8 }
%struct.anon.0 = type { i32, %struct.IRType1, i8, i8, i8 }
%struct.GG_State = type { %struct.lua_State, %struct.global_State, %struct.jit_State, [64 x i16], [243 x ptr], [57 x i32] }
%struct.lua_State = type { %struct.GCRef, i8, i8, i8, i8, %struct.MRef, %struct.GCRef, ptr, ptr, %struct.MRef, %struct.MRef, %struct.GCRef, %struct.GCRef, ptr, i32 }
%struct.global_State = type { ptr, ptr, %struct.GCState, %struct.GCstr, i8, i8, i8, i8, %struct.StrInternState, i32, %struct.GCRef, %struct.SBuf, %union.TValue, %union.TValue, %struct.Node, %union.TValue, %struct.GCupval, i32, i32, ptr, ptr, ptr, i32, i32, %struct.GCRef, %struct.MRef, %struct.MRef, %struct.PRNGState, [39 x %struct.GCRef] }
%struct.GCState = type { i64, i64, i8, i8, i8, i8, i32, %struct.GCRef, %struct.MRef, %struct.GCRef, %struct.GCRef, %struct.GCRef, %struct.GCRef, i64, i64, i32, i32, %struct.MRef }
%struct.GCstr = type { %struct.GCRef, i8, i8, i8, i8, i32, i32, i32 }
%struct.StrInternState = type { ptr, i32, i32, i32, i8, i8, i8, i8, i64 }
%struct.SBuf = type { ptr, ptr, ptr, %struct.MRef }
%struct.Node = type { %union.TValue, %union.TValue, %struct.MRef }
%struct.GCupval = type { %struct.GCRef, i8, i8, i8, i8, %union.anon, %struct.MRef, i32 }
%union.anon = type { %struct.anon.3 }
%struct.anon.3 = type { %struct.GCRef, %struct.GCRef }
%struct.PRNGState = type { [4 x i64] }
%struct.anon = type { i16, i16, i16, i16 }

@field_ofs = internal constant [26 x i8] c"\14\10 \0AH \10(04\0A \0A008@HPX\0A\10\10\10\14\00", align 16

; Function Attrs: nounwind uwtable
define internal i32 @ra_alloc1(ptr noundef %0, i32 noundef %1, i32 noundef %2) #0 {
  %4 = alloca ptr, align 8
  %5 = alloca i32, align 4
  %6 = alloca i32, align 4
  %7 = alloca i32, align 4
  store ptr %0, ptr %4, align 8, !tbaa !33
  store i32 %1, ptr %5, align 4, !tbaa !11
  store i32 %2, ptr %6, align 4, !tbaa !11
  call void @llvm.lifetime.start.p0(i64 4, ptr %7) #11
  %8 = load ptr, ptr %4, align 8, !tbaa !33
  %9 = getelementptr inbounds nuw %struct.ASMState, ptr %8, i32 0, i32 3
  %10 = load ptr, ptr %9, align 8, !tbaa !70
  %11 = load i32, ptr %5, align 4, !tbaa !11
  %12 = zext i32 %11 to i64
  %13 = getelementptr inbounds nuw %union.IRIns, ptr %10, i64 %12
  %14 = getelementptr inbounds nuw %struct.anon.0, ptr %13, i32 0, i32 3
  %15 = load i8, ptr %14, align 2, !tbaa !25
  %16 = zext i8 %15 to i32
  store i32 %16, ptr %7, align 4, !tbaa !11
  %17 = load i32, ptr %7, align 4, !tbaa !11
  %18 = and i32 %17, 128
  %19 = icmp ne i32 %18, 0
  br i1 %19, label %20, label %25

20:                                               ; preds = %3
  %21 = load ptr, ptr %4, align 8, !tbaa !33
  %22 = load i32, ptr %5, align 4, !tbaa !11
  %23 = load i32, ptr %6, align 4, !tbaa !11
  %24 = call i32 @ra_allocref(ptr noundef %21, i32 noundef %22, i32 noundef %23)
  store i32 %24, ptr %7, align 4, !tbaa !11
  br label %25

25:                                               ; preds = %20, %3
  %26 = load i32, ptr %7, align 4, !tbaa !11
  %27 = shl i32 1, %26
  %28 = xor i32 %27, -1
  %29 = load ptr, ptr %4, align 8, !tbaa !33
  %30 = getelementptr inbounds nuw %struct.ASMState, ptr %29, i32 0, i32 8
  %31 = load i32, ptr %30, align 8, !tbaa !140
  %32 = and i32 %31, %28
  store i32 %32, ptr %30, align 8, !tbaa !140
  %33 = load i32, ptr %7, align 4, !tbaa !11
  call void @llvm.lifetime.end.p0(i64 4, ptr %7) #11
  ret i32 %33
}

; Function Attrs: nounwind uwtable
define internal void @asm_fusefref(ptr noundef %0, ptr noundef %1, i32 noundef %2) #0 {
  %4 = alloca ptr, align 8
  %5 = alloca ptr, align 8
  %6 = alloca i32, align 4
  %7 = alloca ptr, align 8
  %8 = alloca i32, align 4
  %9 = alloca i64, align 8
  store ptr %0, ptr %4, align 8, !tbaa !33
  store ptr %1, ptr %5, align 8, !tbaa !37
  store i32 %2, ptr %6, align 4, !tbaa !11
  %10 = load ptr, ptr %4, align 8, !tbaa !33
  %11 = getelementptr inbounds nuw %struct.ASMState, ptr %10, i32 0, i32 5
  %12 = getelementptr inbounds nuw %struct.x86ModRM, ptr %11, i32 0, i32 2
  store i8 -128, ptr %12, align 1, !tbaa !183
  %13 = load ptr, ptr %5, align 8, !tbaa !37
  %14 = getelementptr inbounds nuw %struct.anon, ptr %13, i32 0, i32 0
  %15 = load i16, ptr %14, align 8, !tbaa !25
  %16 = zext i16 %15 to i32
  %17 = icmp eq i32 %16, 32767
  br i1 %17, label %18, label %31

18:                                               ; preds = %3
  %19 = load ptr, ptr %5, align 8, !tbaa !37
  %20 = getelementptr inbounds nuw %struct.anon, ptr %19, i32 0, i32 1
  %21 = load i16, ptr %20, align 2, !tbaa !25
  %22 = zext i16 %21 to i32
  %23 = shl i32 %22, 2
  %24 = sub nsw i32 %23, 4072
  %25 = load ptr, ptr %4, align 8, !tbaa !33
  %26 = getelementptr inbounds nuw %struct.ASMState, ptr %25, i32 0, i32 5
  %27 = getelementptr inbounds nuw %struct.x86ModRM, ptr %26, i32 0, i32 0
  store i32 %24, ptr %27, align 8, !tbaa !184
  %28 = load ptr, ptr %4, align 8, !tbaa !33
  %29 = getelementptr inbounds nuw %struct.ASMState, ptr %28, i32 0, i32 5
  %30 = getelementptr inbounds nuw %struct.x86ModRM, ptr %29, i32 0, i32 1
  store i8 14, ptr %30, align 4, !tbaa !89
  br label %146

31:                                               ; preds = %3
  %32 = load ptr, ptr %5, align 8, !tbaa !37
  %33 = getelementptr inbounds nuw %struct.anon, ptr %32, i32 0, i32 1
  %34 = load i16, ptr %33, align 2, !tbaa !25
  %35 = zext i16 %34 to i64
  %36 = getelementptr inbounds nuw [26 x i8], ptr @field_ofs, i64 0, i64 %35
  %37 = load i8, ptr %36, align 1, !tbaa !25
  %38 = zext i8 %37 to i32
  %39 = load ptr, ptr %4, align 8, !tbaa !33
  %40 = getelementptr inbounds nuw %struct.ASMState, ptr %39, i32 0, i32 5
  %41 = getelementptr inbounds nuw %struct.x86ModRM, ptr %40, i32 0, i32 0
  store i32 %38, ptr %41, align 8, !tbaa !184
  %42 = load ptr, ptr %5, align 8, !tbaa !37
  %43 = getelementptr inbounds nuw %struct.anon, ptr %42, i32 0, i32 0
  %44 = load i16, ptr %43, align 8, !tbaa !25
  %45 = zext i16 %44 to i32
  %46 = icmp slt i32 %45, 32768
  br i1 %46, label %47, label %134

47:                                               ; preds = %31
  call void @llvm.lifetime.start.p0(i64 8, ptr %7) #11
  %48 = load ptr, ptr %4, align 8, !tbaa !33
  %49 = getelementptr inbounds nuw %struct.ASMState, ptr %48, i32 0, i32 3
  %50 = load ptr, ptr %49, align 8, !tbaa !70
  %51 = load ptr, ptr %5, align 8, !tbaa !37
  %52 = getelementptr inbounds nuw %struct.anon, ptr %51, i32 0, i32 0
  %53 = load i16, ptr %52, align 8, !tbaa !25
  %54 = zext i16 %53 to i64
  %55 = getelementptr inbounds nuw %union.IRIns, ptr %50, i64 %54
  store ptr %55, ptr %7, align 8, !tbaa !37
  %56 = load ptr, ptr %5, align 8, !tbaa !37
  %57 = getelementptr inbounds nuw %struct.anon, ptr %56, i32 0, i32 0
  %58 = load i16, ptr %57, align 8, !tbaa !25
  %59 = zext i16 %58 to i32
  %60 = icmp eq i32 %59, 32767
  br i1 %60, label %61, label %70

61:                                               ; preds = %47
  %62 = load ptr, ptr %4, align 8, !tbaa !33
  %63 = getelementptr inbounds nuw %struct.ASMState, ptr %62, i32 0, i32 5
  %64 = getelementptr inbounds nuw %struct.x86ModRM, ptr %63, i32 0, i32 0
  %65 = load i32, ptr %64, align 8, !tbaa !184
  %66 = sub nsw i32 %65, 4072
  store i32 %66, ptr %64, align 8, !tbaa !184
  %67 = load ptr, ptr %4, align 8, !tbaa !33
  %68 = getelementptr inbounds nuw %struct.ASMState, ptr %67, i32 0, i32 5
  %69 = getelementptr inbounds nuw %struct.x86ModRM, ptr %68, i32 0, i32 1
  store i8 14, ptr %69, align 4, !tbaa !89
  store i32 1, ptr %8, align 4
  br label %131

70:                                               ; preds = %47
  %71 = load ptr, ptr %7, align 8, !tbaa !37
  %72 = getelementptr inbounds nuw %struct.anon.0, ptr %71, i32 0, i32 2
  %73 = load i8, ptr %72, align 1, !tbaa !25
  %74 = zext i8 %73 to i32
  %75 = icmp eq i32 %74, 25
  br i1 %75, label %82, label %76

76:                                               ; preds = %70
  %77 = load ptr, ptr %7, align 8, !tbaa !37
  %78 = getelementptr inbounds nuw %struct.anon.0, ptr %77, i32 0, i32 2
  %79 = load i8, ptr %78, align 1, !tbaa !25
  %80 = zext i8 %79 to i32
  %81 = icmp eq i32 %80, 26
  br i1 %81, label %82, label %129

82:                                               ; preds = %76, %70
  call void @llvm.lifetime.start.p0(i64 8, ptr %9) #11
  %83 = load ptr, ptr %7, align 8, !tbaa !37
  %84 = getelementptr inbounds %union.IRIns, ptr %83, i64 1
  %85 = getelementptr inbounds nuw %struct.MRef, ptr %84, i32 0, i32 0
  %86 = load i64, ptr %85, align 8, !tbaa !25
  %87 = inttoptr i64 %86 to ptr
  %88 = ptrtoint ptr %87 to i64
  %89 = load ptr, ptr %4, align 8, !tbaa !33
  %90 = getelementptr inbounds nuw %struct.ASMState, ptr %89, i32 0, i32 4
  %91 = load ptr, ptr %90, align 8, !tbaa !51
  %92 = getelementptr inbounds i8, ptr %91, i64 -832
  %93 = getelementptr inbounds nuw %struct.GG_State, ptr %92, i32 0, i32 4
  %94 = getelementptr inbounds [243 x ptr], ptr %93, i64 0, i64 0
  %95 = ptrtoint ptr %94 to i64
  %96 = sub i64 %88, %95
  store i64 %96, ptr %9, align 8, !tbaa !26
  %97 = load ptr, ptr %4, align 8, !tbaa !33
  %98 = getelementptr inbounds nuw %struct.ASMState, ptr %97, i32 0, i32 5
  %99 = getelementptr inbounds nuw %struct.x86ModRM, ptr %98, i32 0, i32 0
  %100 = load i32, ptr %99, align 8, !tbaa !184
  %101 = sext i32 %100 to i64
  %102 = load i64, ptr %9, align 8, !tbaa !26
  %103 = add nsw i64 %101, %102
  %104 = load ptr, ptr %4, align 8, !tbaa !33
  %105 = getelementptr inbounds nuw %struct.ASMState, ptr %104, i32 0, i32 5
  %106 = getelementptr inbounds nuw %struct.x86ModRM, ptr %105, i32 0, i32 0
  %107 = load i32, ptr %106, align 8, !tbaa !184
  %108 = sext i32 %107 to i64
  %109 = load i64, ptr %9, align 8, !tbaa !26
  %110 = add nsw i64 %108, %109
  %111 = trunc i64 %110 to i32
  %112 = sext i32 %111 to i64
  %113 = icmp eq i64 %103, %112
  br i1 %113, label %114, label %125

114:                                              ; preds = %82
  %115 = load i64, ptr %9, align 8, !tbaa !26
  %116 = trunc i64 %115 to i32
  %117 = load ptr, ptr %4, align 8, !tbaa !33
  %118 = getelementptr inbounds nuw %struct.ASMState, ptr %117, i32 0, i32 5
  %119 = getelementptr inbounds nuw %struct.x86ModRM, ptr %118, i32 0, i32 0
  %120 = load i32, ptr %119, align 8, !tbaa !184
  %121 = add nsw i32 %120, %116
  store i32 %121, ptr %119, align 8, !tbaa !184
  %122 = load ptr, ptr %4, align 8, !tbaa !33
  %123 = getelementptr inbounds nuw %struct.ASMState, ptr %122, i32 0, i32 5
  %124 = getelementptr inbounds nuw %struct.x86ModRM, ptr %123, i32 0, i32 1
  store i8 14, ptr %124, align 4, !tbaa !89
  store i32 1, ptr %8, align 4
  br label %126

125:                                              ; preds = %82
  store i32 0, ptr %8, align 4
  br label %126

126:                                              ; preds = %125, %114
  call void @llvm.lifetime.end.p0(i64 8, ptr %9) #11
  %127 = load i32, ptr %8, align 4
  switch i32 %127, label %131 [
    i32 0, label %128
  ]

128:                                              ; preds = %126
  br label %129

129:                                              ; preds = %128, %76
  br label %130

130:                                              ; preds = %129
  store i32 0, ptr %8, align 4
  br label %131

131:                                              ; preds = %130, %126, %61
  call void @llvm.lifetime.end.p0(i64 8, ptr %7) #11
  %132 = load i32, ptr %8, align 4
  switch i32 %132, label %147 [
    i32 0, label %133
    i32 1, label %146
  ]

133:                                              ; preds = %131
  br label %134

134:                                              ; preds = %133, %31
  %135 = load ptr, ptr %4, align 8, !tbaa !33
  %136 = load ptr, ptr %5, align 8, !tbaa !37
  %137 = getelementptr inbounds nuw %struct.anon, ptr %136, i32 0, i32 0
  %138 = load i16, ptr %137, align 8, !tbaa !25
  %139 = zext i16 %138 to i32
  %140 = load i32, ptr %6, align 4, !tbaa !11
  %141 = call i32 @ra_alloc1(ptr noundef %135, i32 noundef %139, i32 noundef %140)
  %142 = trunc i32 %141 to i8
  %143 = load ptr, ptr %4, align 8, !tbaa !33
  %144 = getelementptr inbounds nuw %struct.ASMState, ptr %143, i32 0, i32 5
  %145 = getelementptr inbounds nuw %struct.x86ModRM, ptr %144, i32 0, i32 1
  store i8 %142, ptr %145, align 4, !tbaa !89
  br label %146

146:                                              ; preds = %134, %131, %18
  ret void

147:                                              ; preds = %131
  unreachable
}