; Function Attrs: nounwind uwtable
define internal fastcc void @asm_fusefref(ptr noundef nonnull captures(none) initializes((160, 164), (165, 166)) %0, ptr noundef readonly captures(none) %1, i32 noundef %2) unnamed_addr #0 {
  %4 = getelementptr inbounds nuw i8, ptr %0, i64 160
  %5 = getelementptr inbounds nuw i8, ptr %0, i64 165
  store i8 -128, ptr %5, align 1, !tbaa !132
  %6 = load i16, ptr %1, align 8, !tbaa !20
  %7 = icmp eq i16 %6, 32767
  %8 = getelementptr inbounds nuw i8, ptr %1, i64 2
  %9 = load i16, ptr %8, align 2, !tbaa !20
  br i1 %7, label %10, label %14

10:                                               ; preds = %3
  %11 = zext i16 %9 to i32
  %12 = shl nuw nsw i32 %11, 2
  %13 = add nsw i32 %12, -4072
  store i32 %13, ptr %4, align 8, !tbaa !131
  br label %.critedge

14:                                               ; preds = %3
  %15 = zext i16 %9 to i64
  %16 = getelementptr inbounds nuw [26 x i8], ptr @field_ofs, i64 0, i64 %15
  %17 = load i8, ptr %16, align 1, !tbaa !20
  %18 = zext i8 %17 to i32
  store i32 %18, ptr %4, align 8, !tbaa !131
  %19 = load i16, ptr %1, align 8, !tbaa !20
  %20 = icmp sgt i16 %19, -1
  %21 = getelementptr inbounds nuw i8, ptr %0, i64 144
  %22 = load ptr, ptr %21, align 8, !tbaa !68
  %23 = zext i16 %19 to i64
  br i1 %20, label %24, label %.critedge.thread

24:                                               ; preds = %14
  %25 = getelementptr inbounds nuw %union.IRIns, ptr %22, i64 %23
  %26 = icmp eq i16 %19, 32767
  br i1 %26, label %27, label %29

27:                                               ; preds = %24
  %28 = add nuw nsw i32 %18, -4072
  store i32 %28, ptr %4, align 8, !tbaa !131
  br label %.critedge

29:                                               ; preds = %24
  %30 = getelementptr inbounds nuw i8, ptr %25, i64 5
  %31 = load i8, ptr %30, align 1, !tbaa !20
  %.off = add i8 %31, -25
  %switch31 = icmp ult i8 %.off, 2
  br i1 %switch31, label %32, label %.critedge.thread

32:                                               ; preds = %29
  %33 = getelementptr inbounds nuw i8, ptr %25, i64 8
  %34 = load i64, ptr %33, align 8, !tbaa !20
  %35 = getelementptr inbounds nuw i8, ptr %0, i64 152
  %36 = load ptr, ptr %35, align 8, !tbaa !44
  %37 = getelementptr inbounds nuw i8, ptr %36, i64 3240
  %38 = ptrtoint ptr %37 to i64
  %39 = sub i64 %34, %38
  %40 = zext i8 %17 to i64
  %41 = or disjoint i64 %40, -2147483648
  %42 = add i64 %41, %39
  %43 = icmp ult i64 %42, -4294967296
  br i1 %43, label %.critedge.thread, label %44

44:                                               ; preds = %32
  %45 = trunc i64 %39 to i32
  %46 = add nsw i32 %45, %18
  store i32 %46, ptr %4, align 8, !tbaa !131
  br label %.critedge

.critedge.thread:                                 ; preds = %14, %29, %32
  %47 = getelementptr inbounds nuw %union.IRIns, ptr %22, i64 %23
  %48 = getelementptr inbounds nuw i8, ptr %47, i64 6
  %49 = load i8, ptr %48, align 2, !tbaa !20
  %50 = zext nneg i8 %49 to i32
  %.not.i = icmp sgt i8 %49, -1
  br i1 %.not.i, label %ra_alloc1.exit, label %51

51:                                               ; preds = %.critedge.thread
  %52 = zext i16 %19 to i32
  %53 = tail call fastcc i32 @ra_allocref(ptr noundef nonnull %0, i32 noundef %52, i32 noundef %2)
  br label %ra_alloc1.exit

ra_alloc1.exit:                                   ; preds = %.critedge.thread, %51
  %.0.i = phi i32 [ %53, %51 ], [ %50, %.critedge.thread ]
  %54 = shl nuw i32 1, %.0.i
  %55 = xor i32 %54, -1
  %56 = getelementptr inbounds nuw i8, ptr %0, i64 176
  %57 = load i32, ptr %56, align 8, !tbaa !80
  %58 = and i32 %57, %55
  store i32 %58, ptr %56, align 8, !tbaa !80
  %59 = trunc nuw i32 %.0.i to i8
  br label %.critedge

.critedge:                                        ; preds = %27, %44, %ra_alloc1.exit, %10
  %.sink = phi i8 [ 14, %27 ], [ 14, %44 ], [ %59, %ra_alloc1.exit ], [ 14, %10 ]
  %60 = getelementptr inbounds nuw i8, ptr %0, i64 164
  store i8 %.sink, ptr %60, align 4, !tbaa !67
  ret void
}